target datalayout = "e-m:e-p270:32:32-p271:32:32-p272:64:64-i64:64-i128:128-f80:128-n8:16:32:64-S128"
target triple = "x86_64-unknown-linux-gnu"

%"struct.std::atomic.1" = type { %"struct.std::__atomic_base.0" }
%"struct.std::__atomic_base.0" = type { ptr }
%"class.absl::cord_internal::CordzInfo" = type <{ %"class.absl::cord_internal::CordzHandle", ptr, %"struct.std::atomic.1", %"struct.std::atomic.1", %"class.absl::Mutex", ptr, [64 x ptr], [64 x ptr], i64, i64, i32, i32, %"class.absl::cord_internal::CordzUpdateTracker", %"class.absl::Time", [4 x i8] }>
%"class.absl::cord_internal::CordzHandle" = type { ptr, i8, ptr, ptr }
%"class.absl::Mutex" = type { %"struct.std::atomic.2" }
%"struct.std::atomic.2" = type { %"struct.std::__atomic_base.3" }
%"struct.std::__atomic_base.3" = type { i64 }
%"class.absl::cord_internal::CordzUpdateTracker" = type { [25 x %"class.absl::cord_internal::CordzUpdateTracker::Counter"] }
%"class.absl::cord_internal::CordzUpdateTracker::Counter" = type { %"struct.std::atomic.2" }
%"class.absl::Time" = type { %"class.absl::Duration" }
%"class.absl::Duration" = type { %"class.absl::Duration::HiRep", i32 }
%"class.absl::Duration::HiRep" = type { i32, i32 }
%"class.absl::Span" = type { ptr, i64 }

; Function Attrs: mustprogress nounwind uwtable
define linkonce_odr dso_local void @_ZN4absl4SpanIKPvEC2EPS2_m(ptr noundef nonnull align 8 dereferenceable(16) %this, ptr noundef %array, i64 noundef %length) unnamed_addr #0 comdat align 2 {
entry:
  %this.addr = alloca ptr, align 8
  %array.addr = alloca ptr, align 8
  %length.addr = alloca i64, align 8
  store ptr %this, ptr %this.addr, align 8
  store ptr %array, ptr %array.addr, align 8
  store i64 %length, ptr %length.addr, align 8
  %this1 = load ptr, ptr %this.addr, align 8
  %ptr_ = getelementptr inbounds %"class.absl::Span", ptr %this1, i32 0, i32 0
  %0 = load ptr, ptr %array.addr, align 8
  store ptr %0, ptr %ptr_, align 8
  %len_ = getelementptr inbounds %"class.absl::Span", ptr %this1, i32 0, i32 1
  %1 = load i64, ptr %length.addr, align 8
  store i64 %1, ptr %len_, align 8
  ret void
}

; Function Attrs: mustprogress nounwind uwtable
define linkonce_odr dso_local { ptr, i64 } @_ZN4absl13MakeConstSpanITpTnRiJEKPvEENS_4SpanIKT0_EEPS5_m(ptr noundef %ptr, i64 noundef %size) #0 comdat {
entry:
  %retval = alloca %"class.absl::Span", align 8
  %ptr.addr = alloca ptr, align 8
  %size.addr = alloca i64, align 8
  store ptr %ptr, ptr %ptr.addr, align 8
  store i64 %size, ptr %size.addr, align 8
  %0 = load ptr, ptr %ptr.addr, align 8
  %1 = load i64, ptr %size.addr, align 8
  call void @_ZN4absl4SpanIKPvEC2EPS2_m(ptr noundef nonnull align 8 dereferenceable(16) %retval, ptr noundef %0, i64 noundef %1) #10
  %2 = load { ptr, i64 }, ptr %retval, align 8
  ret { ptr, i64 } %2
}

; Function Attrs: mustprogress nounwind uwtable
define dso_local { ptr, i64 } @_ZNK4absl13cord_internal9CordzInfo8GetStackEv(ptr noundef nonnull align 8 dereferenceable(1332) %this) #0 align 2 {
entry:
  %retval = alloca %"class.absl::Span", align 8
  %this.addr = alloca ptr, align 8
  store ptr %this, ptr %this.addr, align 8
  %this1 = load ptr, ptr %this.addr, align 8
  %stack_ = getelementptr inbounds %"class.absl::cord_internal::CordzInfo", ptr %this1, i32 0, i32 6
  %arraydecay = getelementptr inbounds [64 x ptr], ptr %stack_, i64 0, i64 0
  %stack_depth_ = getelementptr inbounds %"class.absl::cord_internal::CordzInfo", ptr %this1, i32 0, i32 8
  %0 = load i64, ptr %stack_depth_, align 8
  %call = call { ptr, i64 } @_ZN4absl13MakeConstSpanITpTnRiJEKPvEENS_4SpanIKT0_EEPS5_m(ptr noundef %arraydecay, i64 noundef %0) #10
  %1 = getelementptr inbounds { ptr, i64 }, ptr %retval, i32 0, i32 0
  %2 = extractvalue { ptr, i64 } %call, 0
  store ptr %2, ptr %1, align 8
  %3 = getelementptr inbounds { ptr, i64 }, ptr %retval, i32 0, i32 1
  %4 = extractvalue { ptr, i64 } %call, 1
  store i64 %4, ptr %3, align 8
  %5 = load { ptr, i64 }, ptr %retval, align 8
  ret { ptr, i64 } %5
}