; Function Attrs: mustprogress nofree norecurse nosync nounwind willreturn memory(argmem: read) uwtable
define dso_local { ptr, i64 } @_ZNK4absl13cord_internal9CordzInfo8GetStackEv(ptr noundef nonnull align 8 dereferenceable(1332) %this) local_unnamed_addr #5 align 2 {
entry:
  %stack_ = getelementptr inbounds i8, ptr %this, i64 72
  %stack_depth_ = getelementptr inbounds i8, ptr %this, i64 1096
  %0 = load i64, ptr %stack_depth_, align 8
  %.fca.0.insert.i = insertvalue { ptr, i64 } poison, ptr %stack_, 0
  %.fca.1.insert.i = insertvalue { ptr, i64 } %.fca.0.insert.i, i64 %0, 1
  ret { ptr, i64 } %.fca.1.insert.i
}